target datalayout = "e-m:e-p270:32:32-p271:32:32-p272:64:64-i64:64-i128:128-f80:128-n8:16:32:64-S128"
target triple = "x86_64-unknown-linux-gnu"

%"class.facebook::velox::memory::ScopedMemoryArbitrationContext" = type { ptr, %"struct.facebook::velox::memory::MemoryArbitrationContext" }
%"struct.facebook::velox::memory::MemoryArbitrationContext" = type { ptr }

@_ZN8facebook5velox6memory12_GLOBAL__N_114arbitrationCtxE = internal thread_local global ptr null, align 8

; Function Attrs: mustprogress nounwind uwtable
define void @_ZN8facebook5velox6memory30ScopedMemoryArbitrationContextC2ERKNS1_10MemoryPoolE(ptr noundef nonnull align 8 dereferenceable(16) %this, ptr noundef nonnull align 8 dereferenceable(168) %requestor) unnamed_addr #2 align 2 {
entry:
  %this.addr = alloca ptr, align 8
  %requestor.addr = alloca ptr, align 8
  store ptr %this, ptr %this.addr, align 8
  store ptr %requestor, ptr %requestor.addr, align 8
  %this1 = load ptr, ptr %this.addr, align 8
  %savedArbitrationCtx_ = getelementptr inbounds %"class.facebook::velox::memory::ScopedMemoryArbitrationContext", ptr %this1, i32 0, i32 0
  %0 = call align 8 ptr @llvm.threadlocal.address.p0(ptr align 8 @_ZN8facebook5velox6memory12_GLOBAL__N_114arbitrationCtxE)
  %1 = load ptr, ptr %0, align 8
  store ptr %1, ptr %savedArbitrationCtx_, align 8
  %currentArbitrationCtx_ = getelementptr inbounds %"class.facebook::velox::memory::ScopedMemoryArbitrationContext", ptr %this1, i32 0, i32 1
  %requestor2 = getelementptr inbounds %"struct.facebook::velox::memory::MemoryArbitrationContext", ptr %currentArbitrationCtx_, i32 0, i32 0
  %2 = load ptr, ptr %requestor.addr, align 8
  store ptr %2, ptr %requestor2, align 8
  %currentArbitrationCtx_3 = getelementptr inbounds %"class.facebook::velox::memory::ScopedMemoryArbitrationContext", ptr %this1, i32 0, i32 1
  %3 = call align 8 ptr @llvm.threadlocal.address.p0(ptr align 8 @_ZN8facebook5velox6memory12_GLOBAL__N_114arbitrationCtxE)
  store ptr %currentArbitrationCtx_3, ptr %3, align 8
  ret void
}