; Function Attrs: mustprogress nofree norecurse nosync nounwind willreturn memory(readwrite, inaccessiblemem: none) uwtable
define void @_ZN8facebook5velox6memory30ScopedMemoryArbitrationContextC2ERKNS1_10MemoryPoolE(ptr noundef nonnull align 8 dereferenceable(16) %this, ptr noundef nonnull align 8 dereferenceable(168) %requestor) unnamed_addr #12 align 2 {
entry:
  %0 = tail call align 8 ptr @llvm.threadlocal.address.p0(ptr align 8 @_ZN8facebook5velox6memory12_GLOBAL__N_114arbitrationCtxE)
  %1 = load ptr, ptr %0, align 8
  store ptr %1, ptr %this, align 8
  %currentArbitrationCtx_ = getelementptr inbounds i8, ptr %this, i64 8
  store ptr %requestor, ptr %currentArbitrationCtx_, align 8
  store ptr %currentArbitrationCtx_, ptr %0, align 8
  ret void
}